target datalayout = "e-m:e-p270:32:32-p271:32:32-p272:64:64-i64:64-i128:128-f80:128-n8:16:32:64-S128"
target triple = "x86_64-pc-linux-gnu"

%class.Node = type <{ ptr, ptr, ptr, i32, i32, i32, i32, i32, i32, i32, [4 x i8] }>
%class.PhaseValues = type { %class.PhaseTransform, i8, ptr, ptr, [137 x ptr], [137 x ptr], [20 x ptr] }
%class.PhaseTransform = type { ptr, %class.Phase }
%class.Phase = type { i32, ptr }
%class.JavaValue = type { i8, %"union.JavaValue::JavaCallValue" }
%"union.JavaValue::JavaCallValue" = type { double }
%class.TypeInteger.base = type { %class.Type.base, i16 }
%class.Type.base = type <{ ptr, ptr, i32 }>
%class.TypeInt = type { %class.TypeInteger.base, i32, i32 }
%class.Type_Array = type { ptr, i32, ptr }

@_ZN4Type3TOPE = external global ptr, align 8

; Function Attrs: mustprogress nounwind uwtable
define linkonce_odr hidden noundef ptr @_ZNK10Type_Array11fast_lookupEj(ptr noundef nonnull align 8 dereferenceable(24) %0, i32 noundef %1) #1 comdat align 2 {
  %3 = alloca ptr, align 8
  %4 = alloca i32, align 4
  store ptr %0, ptr %3, align 8
  store i32 %1, ptr %4, align 4
  %5 = load ptr, ptr %3, align 8
  %6 = getelementptr inbounds %class.Type_Array, ptr %5, i32 0, i32 2
  %7 = load ptr, ptr %6, align 8
  %8 = load i32, ptr %4, align 4
  %9 = zext i32 %8 to i64
  %10 = getelementptr inbounds ptr, ptr %7, i64 %9
  %11 = load ptr, ptr %10, align 8
  ret ptr %11
}

; Function Attrs: mustprogress nounwind uwtable
define linkonce_odr hidden noundef float @_ZNK9JavaValue10get_jfloatEv(ptr noundef nonnull align 8 dereferenceable(16) %0) #1 comdat align 2 {
  %2 = alloca ptr, align 8
  store ptr %0, ptr %2, align 8
  %3 = load ptr, ptr %2, align 8
  %4 = getelementptr inbounds %class.JavaValue, ptr %3, i32 0, i32 1
  %5 = load float, ptr %4, align 8
  ret float %5
}

; Function Attrs: mustprogress nounwind uwtable
define linkonce_odr hidden void @_ZN9JavaValue8set_jintEi(ptr noundef nonnull align 8 dereferenceable(16) %0, i32 noundef %1) #1 comdat align 2 {
  %3 = alloca ptr, align 8
  %4 = alloca i32, align 4
  store ptr %0, ptr %3, align 8
  store i32 %1, ptr %4, align 4
  %5 = load ptr, ptr %3, align 8
  %6 = load i32, ptr %4, align 4
  %7 = getelementptr inbounds %class.JavaValue, ptr %5, i32 0, i32 1
  store i32 %6, ptr %7, align 8
  ret void
}

; Function Attrs: mustprogress nounwind uwtable
define linkonce_odr hidden noundef i32 @_ZNK7TypeInt7get_conEv(ptr noundef nonnull align 8 dereferenceable(32) %0) #1 comdat align 2 {
  %2 = alloca ptr, align 8
  store ptr %0, ptr %2, align 8
  %3 = load ptr, ptr %2, align 8
  %4 = getelementptr inbounds %class.TypeInt, ptr %3, i32 0, i32 1
  %5 = load i32, ptr %4, align 8
  ret i32 %5
}

; Function Attrs: mustprogress nounwind uwtable
define linkonce_odr hidden void @_ZN9JavaValueC2E9BasicType(ptr noundef nonnull align 8 dereferenceable(16) %0, i8 noundef zeroext %1) unnamed_addr #1 comdat align 2 {
  %3 = alloca ptr, align 8
  %4 = alloca i8, align 1
  store ptr %0, ptr %3, align 8
  store i8 %1, ptr %4, align 1
  %5 = load ptr, ptr %3, align 8
  %6 = load i8, ptr %4, align 1
  %7 = getelementptr inbounds %class.JavaValue, ptr %5, i32 0, i32 0
  store i8 %6, ptr %7, align 8
  ret void
}

; Function Attrs: mustprogress nounwind uwtable
define linkonce_odr hidden noundef zeroext i1 @_ZNK7TypeInt6is_conEv(ptr noundef nonnull align 8 dereferenceable(32) %0) #1 comdat align 2 {
  %2 = alloca ptr, align 8
  store ptr %0, ptr %2, align 8
  %3 = load ptr, ptr %2, align 8
  %4 = getelementptr inbounds %class.TypeInt, ptr %3, i32 0, i32 1
  %5 = load i32, ptr %4, align 8
  %6 = getelementptr inbounds %class.TypeInt, ptr %3, i32 0, i32 2
  %7 = load i32, ptr %6, align 4
  %8 = icmp eq i32 %5, %7
  ret i1 %8
}

; Function Attrs: mustprogress nounwind uwtable
define linkonce_odr hidden noundef ptr @_ZNK4Type6is_intEv(ptr noundef nonnull align 8 dereferenceable(20) %0) #1 comdat align 2 {
  %2 = alloca ptr, align 8
  store ptr %0, ptr %2, align 8
  %3 = load ptr, ptr %2, align 8
  ret ptr %3
}

; Function Attrs: mustprogress nounwind uwtable
define linkonce_odr hidden noundef ptr @_ZNK11PhaseValues4typeEPK4Node(ptr noundef nonnull align 8 dereferenceable(2400) %0, ptr noundef %1) #1 comdat align 2 {
  %3 = alloca ptr, align 8
  %4 = alloca ptr, align 8
  %5 = alloca ptr, align 8
  store ptr %0, ptr %3, align 8
  store ptr %1, ptr %4, align 8
  %6 = load ptr, ptr %3, align 8
  %7 = getelementptr inbounds %class.PhaseValues, ptr %6, i32 0, i32 3
  %8 = load ptr, ptr %7, align 8
  %9 = load ptr, ptr %4, align 8
  %10 = getelementptr inbounds %class.Node, ptr %9, i32 0, i32 7
  %11 = load i32, ptr %10, align 8
  %12 = call noundef ptr @_ZNK10Type_Array11fast_lookupEj(ptr noundef nonnull align 8 dereferenceable(24) %8, i32 noundef %11)
  store ptr %12, ptr %5, align 8
  %13 = load ptr, ptr %5, align 8
  ret ptr %13
}

; Function Attrs: mustprogress nounwind uwtable
define linkonce_odr hidden noundef ptr @_ZNK4Node2inEj(ptr noundef nonnull align 8 dereferenceable(52) %0, i32 noundef %1) #1 comdat align 2 {
  %3 = alloca ptr, align 8
  %4 = alloca i32, align 4
  store ptr %0, ptr %3, align 8
  store i32 %1, ptr %4, align 4
  %5 = load ptr, ptr %3, align 8
  %6 = getelementptr inbounds %class.Node, ptr %5, i32 0, i32 1
  %7 = load ptr, ptr %6, align 8
  %8 = load i32, ptr %4, align 4
  %9 = zext i32 %8 to i64
  %10 = getelementptr inbounds ptr, ptr %7, i64 %9
  %11 = load ptr, ptr %10, align 8
  ret ptr %11
}

; Function Attrs: mustprogress nounwind uwtable
define hidden noundef ptr @_ZNK11MoveI2FNode5ValueEP8PhaseGVN(ptr noundef nonnull align 8 dereferenceable(52) %0, ptr noundef %1) unnamed_addr #1 align 2 {
  %3 = alloca ptr, align 8
  %4 = alloca ptr, align 8
  %5 = alloca ptr, align 8
  %6 = alloca ptr, align 8
  %7 = alloca ptr, align 8
  %8 = alloca %class.JavaValue, align 8
  store ptr %0, ptr %4, align 8
  store ptr %1, ptr %5, align 8
  %9 = load ptr, ptr %4, align 8
  %10 = load ptr, ptr %5, align 8
  %11 = call noundef ptr @_ZNK4Node2inEj(ptr noundef nonnull align 8 dereferenceable(52) %9, i32 noundef 1)
  %12 = call noundef ptr @_ZNK11PhaseValues4typeEPK4Node(ptr noundef nonnull align 8 dereferenceable(2400) %10, ptr noundef %11)
  store ptr %12, ptr %6, align 8
  %13 = load ptr, ptr %6, align 8
  %14 = load ptr, ptr @_ZN4Type3TOPE, align 8
  %15 = icmp eq ptr %13, %14
  br i1 %15, label %16, label %18

16:                                               ; preds = %2
  %17 = load ptr, ptr @_ZN4Type3TOPE, align 8
  store ptr %17, ptr %3, align 8
  br label %33

18:                                               ; preds = %2
  %19 = load ptr, ptr %6, align 8
  %20 = call noundef ptr @_ZNK4Type6is_intEv(ptr noundef nonnull align 8 dereferenceable(20) %19)
  store ptr %20, ptr %7, align 8
  %21 = load ptr, ptr %7, align 8
  %22 = call noundef zeroext i1 @_ZNK7TypeInt6is_conEv(ptr noundef nonnull align 8 dereferenceable(32) %21)
  br i1 %22, label %28, label %23

23:                                               ; preds = %18
  %24 = load ptr, ptr %9, align 8
  %25 = getelementptr inbounds ptr, ptr %24, i64 5
  %26 = load ptr, ptr %25, align 8
  %27 = call noundef ptr %26(ptr noundef nonnull align 8 dereferenceable(52) %9)
  store ptr %27, ptr %3, align 8
  br label %33

28:                                               ; preds = %18
  call void @_ZN9JavaValueC2E9BasicType(ptr noundef nonnull align 8 dereferenceable(16) %8, i8 noundef zeroext 99)
  %29 = load ptr, ptr %7, align 8
  %30 = call noundef i32 @_ZNK7TypeInt7get_conEv(ptr noundef nonnull align 8 dereferenceable(32) %29)
  call void @_ZN9JavaValue8set_jintEi(ptr noundef nonnull align 8 dereferenceable(16) %8, i32 noundef %30)
  %31 = call noundef float @_ZNK9JavaValue10get_jfloatEv(ptr noundef nonnull align 8 dereferenceable(16) %8)
  %32 = call noundef ptr @_ZN5TypeF4makeEf(float noundef %31)
  store ptr %32, ptr %3, align 8
  br label %33

33:                                               ; preds = %28, %23, %16
  %34 = load ptr, ptr %3, align 8
  ret ptr %34
}